target datalayout = "e-m:e-p270:32:32-p271:32:32-p272:64:64-i64:64-i128:128-f80:128-n8:16:32:64-S128"
target triple = "x86_64-pc-linux-gnu"

%struct.transport_vtable = type { ptr, ptr, ptr, ptr, ptr, ptr, ptr }
%struct.strbuf = type { i64, i64, ptr }
%struct.helper_data = type { ptr, ptr, ptr, i16, ptr, ptr, %struct.refspec, %struct.git_transport_options }
%struct.refspec = type { ptr, i32, i32, i32 }
%struct.git_transport_options = type { i16, i32, ptr, ptr, ptr, ptr, ptr, %struct.list_objects_filter_options, ptr, ptr }
%struct.list_objects_filter_options = type { %struct.strbuf, i32, i8, ptr, i64, i64, i32, i64, i64, ptr }
%struct.transport = type { ptr, ptr, ptr, ptr, ptr, i8, ptr, i8, ptr, ptr, %struct.string_list, i8, ptr, i32, ptr }
%struct.string_list = type { ptr, i64, i64, i8, ptr }

@.str.61 = private unnamed_addr constant [17 x i8] c"git-receive-pack\00", align 1
@.str.62 = private unnamed_addr constant [16 x i8] c"git-upload-pack\00", align 1

; Function Attrs: nounwind uwtable
define internal void @do_take_over(ptr noundef %0) #0 {
  %2 = alloca ptr, align 8
  %3 = alloca ptr, align 8
  store ptr %0, ptr %2, align 8, !tbaa !4
  call void @llvm.lifetime.start.p0(i64 8, ptr %3) #12
  %4 = load ptr, ptr %2, align 8, !tbaa !4
  %5 = getelementptr inbounds nuw %struct.transport, ptr %4, i32 0, i32 3
  %6 = load ptr, ptr %5, align 8, !tbaa !30
  store ptr %6, ptr %3, align 8, !tbaa !11
  %7 = load ptr, ptr %2, align 8, !tbaa !4
  %8 = load ptr, ptr %3, align 8, !tbaa !11
  %9 = getelementptr inbounds nuw %struct.helper_data, ptr %8, i32 0, i32 1
  %10 = load ptr, ptr %9, align 8, !tbaa !84
  call void @transport_take_over(ptr noundef %7, ptr noundef %10)
  %11 = load ptr, ptr %3, align 8, !tbaa !11
  %12 = getelementptr inbounds nuw %struct.helper_data, ptr %11, i32 0, i32 2
  %13 = load ptr, ptr %12, align 8, !tbaa !104
  %14 = call i32 @fclose(ptr noundef %13)
  %15 = load ptr, ptr %3, align 8, !tbaa !11
  %16 = getelementptr inbounds nuw %struct.helper_data, ptr %15, i32 0, i32 0
  %17 = load ptr, ptr %16, align 8, !tbaa !13
  call void @free(ptr noundef %17) #12
  %18 = load ptr, ptr %3, align 8, !tbaa !11
  call void @free(ptr noundef %18) #12
  call void @llvm.lifetime.end.p0(i64 8, ptr %3) #12
  ret void
}

; Function Attrs: nounwind uwtable
define internal i32 @process_connect(ptr noundef %0, i32 noundef %1) #0 {
  %3 = alloca ptr, align 8
  %4 = alloca i32, align 4
  %5 = alloca ptr, align 8
  %6 = alloca ptr, align 8
  %7 = alloca ptr, align 8
  %8 = alloca i32, align 4
  store ptr %0, ptr %3, align 8, !tbaa !4
  store i32 %1, ptr %4, align 4, !tbaa !29
  call void @llvm.lifetime.start.p0(i64 8, ptr %5) #12
  %9 = load ptr, ptr %3, align 8, !tbaa !4
  %10 = getelementptr inbounds nuw %struct.transport, ptr %9, i32 0, i32 3
  %11 = load ptr, ptr %10, align 8, !tbaa !30
  store ptr %11, ptr %5, align 8, !tbaa !11
  call void @llvm.lifetime.start.p0(i64 8, ptr %6) #12
  call void @llvm.lifetime.start.p0(i64 8, ptr %7) #12
  call void @llvm.lifetime.start.p0(i64 4, ptr %8) #12
  %12 = load i32, ptr %4, align 4, !tbaa !29
  %13 = icmp ne i32 %12, 0
  %14 = select i1 %13, ptr @.str.61, ptr @.str.62
  store ptr %14, ptr %6, align 8, !tbaa !9
  %15 = load i32, ptr %4, align 4, !tbaa !29
  %16 = icmp ne i32 %15, 0
  br i1 %16, label %17, label %22

17:                                               ; preds = %2
  %18 = load ptr, ptr %5, align 8, !tbaa !11
  %19 = getelementptr inbounds nuw %struct.helper_data, ptr %18, i32 0, i32 7
  %20 = getelementptr inbounds nuw %struct.git_transport_options, ptr %19, i32 0, i32 5
  %21 = load ptr, ptr %20, align 8, !tbaa !121
  store ptr %21, ptr %7, align 8, !tbaa !9
  br label %27

22:                                               ; preds = %2
  %23 = load ptr, ptr %5, align 8, !tbaa !11
  %24 = getelementptr inbounds nuw %struct.helper_data, ptr %23, i32 0, i32 7
  %25 = getelementptr inbounds nuw %struct.git_transport_options, ptr %24, i32 0, i32 4
  %26 = load ptr, ptr %25, align 8, !tbaa !122
  store ptr %26, ptr %7, align 8, !tbaa !9
  br label %27

27:                                               ; preds = %22, %17
  %28 = load ptr, ptr %3, align 8, !tbaa !4
  %29 = load ptr, ptr %6, align 8, !tbaa !9
  %30 = load ptr, ptr %7, align 8, !tbaa !9
  %31 = call i32 @process_connect_service(ptr noundef %28, ptr noundef %29, ptr noundef %30)
  store i32 %31, ptr %8, align 4, !tbaa !29
  %32 = load i32, ptr %8, align 4, !tbaa !29
  %33 = icmp ne i32 %32, 0
  br i1 %33, label %34, label %36

34:                                               ; preds = %27
  %35 = load ptr, ptr %3, align 8, !tbaa !4
  call void @do_take_over(ptr noundef %35)
  br label %36

36:                                               ; preds = %34, %27
  %37 = load i32, ptr %8, align 4, !tbaa !29
  call void @llvm.lifetime.end.p0(i64 4, ptr %8) #12
  call void @llvm.lifetime.end.p0(i64 8, ptr %7) #12
  call void @llvm.lifetime.end.p0(i64 8, ptr %6) #12
  call void @llvm.lifetime.end.p0(i64 8, ptr %5) #12
  ret i32 %37
}

; Function Attrs: nounwind uwtable
define internal ptr @get_refs_list(ptr noundef %0, i32 noundef %1, ptr noundef %2) #0 {
  %4 = alloca ptr, align 8
  %5 = alloca ptr, align 8
  %6 = alloca i32, align 4
  %7 = alloca ptr, align 8
  store ptr %0, ptr %5, align 8, !tbaa !4
  store i32 %1, ptr %6, align 4, !tbaa !29
  store ptr %2, ptr %7, align 8, !tbaa !68
  %8 = load ptr, ptr %5, align 8, !tbaa !4
  %9 = call ptr @get_helper(ptr noundef %8)
  %10 = load ptr, ptr %5, align 8, !tbaa !4
  %11 = load i32, ptr %6, align 4, !tbaa !29
  %12 = call i32 @process_connect(ptr noundef %10, i32 noundef %11)
  %13 = icmp ne i32 %12, 0
  br i1 %13, label %14, label %24

14:                                               ; preds = %3
  %15 = load ptr, ptr %5, align 8, !tbaa !4
  %16 = getelementptr inbounds nuw %struct.transport, ptr %15, i32 0, i32 0
  %17 = load ptr, ptr %16, align 8, !tbaa !40
  %18 = getelementptr inbounds nuw %struct.transport_vtable, ptr %17, i32 0, i32 1
  %19 = load ptr, ptr %18, align 8, !tbaa !70
  %20 = load ptr, ptr %5, align 8, !tbaa !4
  %21 = load i32, ptr %6, align 4, !tbaa !29
  %22 = load ptr, ptr %7, align 8, !tbaa !68
  %23 = call ptr %19(ptr noundef %20, i32 noundef %21, ptr noundef %22)
  store ptr %23, ptr %4, align 8
  br label %28

24:                                               ; preds = %3
  %25 = load ptr, ptr %5, align 8, !tbaa !4
  %26 = load i32, ptr %6, align 4, !tbaa !29
  %27 = call ptr @get_refs_list_using_list(ptr noundef %25, i32 noundef %26)
  store ptr %27, ptr %4, align 8
  br label %28

28:                                               ; preds = %24, %14
  %29 = load ptr, ptr %4, align 8
  ret ptr %29
}