; Function Attrs: nounwind uwtable
define internal ptr @get_refs_list(ptr noundef %0, i32 noundef %1, ptr noundef %2) #0 {
  %4 = tail call fastcc ptr @get_helper(ptr noundef %0)
  %5 = getelementptr inbounds nuw i8, ptr %0, i64 24
  %6 = load ptr, ptr %5, align 8, !tbaa !24
  %.not.i = icmp eq i32 %1, 0
  %7 = select i1 %.not.i, ptr @.str.62, ptr @.str.61
  %.0.in.v.i = select i1 %.not.i, i64 96, i64 104
  %.0.in.i = getelementptr inbounds nuw i8, ptr %6, i64 %.0.in.v.i
  %.0.i = load ptr, ptr %.0.in.i, align 8, !tbaa !69
  %8 = tail call fastcc i32 @process_connect_service(ptr noundef %0, ptr noundef nonnull %7, ptr noundef %.0.i)
  %.not10.i = icmp eq i32 %8, 0
  br i1 %.not10.i, label %21, label %9

9:                                                ; preds = %3
  %10 = load ptr, ptr %5, align 8, !tbaa !24
  %11 = getelementptr inbounds nuw i8, ptr %10, i64 8
  %12 = load ptr, ptr %11, align 8, !tbaa !71
  tail call void @transport_take_over(ptr noundef nonnull %0, ptr noundef %12) #19
  %13 = getelementptr inbounds nuw i8, ptr %10, i64 16
  %14 = load ptr, ptr %13, align 8, !tbaa !72
  %15 = tail call i32 @fclose(ptr noundef %14)
  %16 = load ptr, ptr %10, align 8, !tbaa !4
  tail call void @free(ptr noundef %16) #19
  tail call void @free(ptr noundef %10) #19
  %17 = load ptr, ptr %0, align 8, !tbaa !34
  %18 = getelementptr inbounds nuw i8, ptr %17, i64 8
  %19 = load ptr, ptr %18, align 8, !tbaa !73
  %20 = tail call ptr %19(ptr noundef nonnull %0, i32 noundef %1, ptr noundef %2) #19
  br label %23

21:                                               ; preds = %3
  %22 = tail call fastcc ptr @get_refs_list_using_list(ptr noundef nonnull %0, i32 noundef %1)
  br label %23

23:                                               ; preds = %21, %9
  %.0 = phi ptr [ %20, %9 ], [ %22, %21 ]
  ret ptr %.0
}